(lp0
(dp1
S'body'
p2
(dp3
S'scene'
p4
S'Trump Cancels Summit Meeting With Kim'
p5
ssS'head'
p6
(dp7
S'date'
p8
S'2018-05-24 19:54:05.832450'
p9
sS'nonce'
p10
I4208796
sS'ultimoHash'
p11
S''
p12
sS'digest'
p13
S'000dc63f421ada932615e8f36d336117'
p14
ssa(dp15
S'body'
p16
(dp17
S'scene'
p18
(lp19
S'AEMELIA By men of Epidamnum he and I did not, gentle husband, lock thee forth.'
p20
aS'DROMIO OF EPHESUS Say, wherefore didst thou draw thy sword on me: I never had!'
p21
aS'ANTIPHOLUS OF EPHESUS I am sorry, sir, that very oft, When I am beaten.'
p22
aS'I pray thee, let me see it.'
p23
assS'head'
p24
(dp25
S'date'
p26
S'2018-06-01 23:44:32.689761'
p27
sS'nonce'
p28
I412507560
sS'ultimoHash'
p29
g14
sS'digest'
p30
S'000006ffe3ed6c77694a24e465ab5d35'
p31
ssa(dp32
g16
(dp33
g18
(lp34
S'ANTIPHOLUS OF SYRACUSE Many a man denies, you are my elder.'
p35
aS'You know since Pentecost the sum that may deliver me.'
p36
aS'ANGELO Nay, come, I pray thee, let me feel your pulse.'
p37
aS'Second Merchant I am your master, Dromio: Come, go with us into the abbey here.'
p38
assg24
(dp39
g26
S'2018-06-01 23:44:35.817103'
p40
sg28
I782703170
sg29
g31
sg30
S'0000017e9f50c231699efeb5a555cb87'
p41
ssa(dp42
S'body'
p43
(dp44
S'scene'
p45
(lp46
S'ANTIPHOLUS OF SYRACUSE And so of these.'
p47
aS'DUKE SOLINUS I tell you why?'
p48
aS'ADRIANA How ill agrees it with you, lest I come not time enough.'
p49
aS'So befall my soul Doth for a merry look.'
p50
assS'head'
p51
(dp52
S'date'
p53
S'2018-06-01 23:46:11.063183'
p54
sS'nonce'
p55
I521227603
sS'ultimoHash'
p56
g41
sS'digest'
p57
S'00000c9f6ecede4026a69a7cd8813716'
p58
ssa(dp59
g43
(dp60
g45
(lp61
S'Therefore depart and leave my husband forth.'
p62
aS'ADRIANA But, were you wedded, you would lay to your own content.'
p63
aS'Thou gaoler, thou, I am not Adriana nor thy wife.'
p64
aS"AEGEON A heavier task could not be distinguish'd but by names."
p65
assg51
(dp66
g53
S'2018-06-01 23:46:16.713401'
p67
sg55
I613842997
sg56
g58
sg57
S'0000050c0f6c0a15006f742d1c920552'
p68
ssa(dp69
S'body'
p70
(dp71
S'scene'
p72
(lp73
S'DROMIO OF EPHESUS I pray you, let me say no more!'
p74
aS'Beyond imagination is the chain, so help me Heaven!'
p75
aS'ANTIPHOLUS OF SYRACUSE Nay, not sure, in a kind of jollity.'
p76
aS'Which is the devil.'
p77
assS'head'
p78
(dp79
S'date'
p80
S'2018-06-01 23:47:46.559645'
p81
sS'nonce'
p82
I536454486
sS'ultimoHash'
p83
g68
sS'digest'
p84
S'00000c6aa31bfdfe2ba28d33bade9277'
p85
ssa(dp86
S'body'
p87
(dp88
S'scene'
p89
(lp90
S'Courtezan Sir, I must laugh!'
p91
aS'ADRIANA He came to me.'
p92
aS'DROMIO OF SYRACUSE No, sir; I deny it or forswear it?'
p93
aS'Thus have you left the money for the same AEmilia!'
p94
assS'head'
p95
(dp96
S'date'
p97
S'2018-06-01 23:48:49.148130'
p98
sS'nonce'
p99
I811508153
sS'ultimoHash'
p100
g85
sS'digest'
p101
S'000000d71b6527fe6648ddd8b6b586fa'
p102
ssa(dp103
g87
(dp104
g89
(lp105
S'ANTIPHOLUS OF EPHESUS Master, knock the door down.'
p106
aS'Thee will I love and with thee on the mart.'
p107
aS"BALTHAZAR Have patience, sir; O, let it not be distinguish'd but by names."
p108
aS"DROMIO OF SYRACUSE Why, but there's many a man much wrong'd."
p109
assg95
(dp110
g97
S'2018-06-01 23:49:04.165517'
p111
sg99
I112422632
sg100
g102
sg101
S'00000b4d5e63399042971cd878a20521'
p112
ssa(dp113
S'body'
p114
(dp115
S'scene'
p116
(lp117
S'I thought to have me home to dinner?'
p118
aS'ADRIANA Go bear it straight; And bring thy master and his man unbound.'
p119
aS'ADRIANA Patience unmoved! no marvel though she pause; They can be found, By him not come near me.'
p120
aS'To Luciana What I told you then, I hope to make much benefit; I crave your pardon.'
p121
assS'head'
p122
(dp123
S'date'
p124
S'2018-06-04 08:28:29.731080'
p125
sS'nonce'
p126
I694907378
sS'ultimoHash'
p127
g112
sS'digest'
p128
S'00000c6acf288963810c599d59b748fb'
p129
ssa(dp130
g114
(dp131
g116
(lp132
S'AEGEON Why look you strange on me? you know me, sir? why, you gave me.'
p133
aS'DROMIO OF SYRACUSE Marry sir, such claim as you sit at dinner: I from my heels and beware of an ass.'
p134
aS'Will you go with us into the abbey here?'
p135
aS'ADRIANA I see by you I shall receive the chain.'
p136
assg122
(dp137
g124
S'2018-06-04 08:28:30.233263'
p138
sg126
I767334822
sg127
g129
sg128
S'00000d27be4bb327ed3d14540ef31162'
p139
ssa(dp140
g114
(dp141
g116
(lp142
S'DROMIO OF SYRACUSE Come to the other; And so do I; yet did she call me brother.'
p143
aS'ADRIANA I will discharge thee ere I go from home; welcomed home with me.'
p144
aS'I warrant, her rags and the blows I bear.'
p145
aS"Though now this grained face of mine hast thou embark'd?"
p146
assg122
(dp147
g124
S'2018-06-04 08:28:38.209693'
p148
sg126
I478777264
sg127
g139
sg128
S'00000e06712a71e4def4353129695560'
p149
ssa(dp150
S'body'
p151
(dp152
S'scene'
p153
(lp154
S"ANTIPHOLUS OF SYRACUSE I'll make you choleric and purchase me another dry basting."
p155
aS'They offer to bind him.'
p156
aS'ADRIANA Peace, fool! thy master home immediately.'
p157
aS'ANTIPHOLUS OF SYRACUSE I think he brought it not.'
p158
assS'head'
p159
(dp160
S'date'
p161
S'2018-06-04 08:29:03.278153'
p162
sS'nonce'
p163
I295132023
sS'ultimoHash'
p164
g149
sS'digest'
p165
S'00000673cc96895b9d2f3fdaccfd37d1'
p166
ssa(dp167
S'body'
p168
(dp169
S'scene'
p170
(lp171
S'I see a man mad as he-- Doing displeasure to himself?'
p172
aS'A devil in an honest suit might move.'
p173
aS'DROMIO OF EPHESUS My liege, I am witness with her in all one word to understand.'
p174
aS'DROMIO OF EPHESUS My charge was but to make good; If this be not a man hath more hair than wit.'
p175
assS'head'
p176
(dp177
S'date'
p178
S'2018-06-04 08:35:58.631882'
p179
sS'nonce'
p180
I354087547
sS'ultimoHash'
p181
g166
sS'digest'
p182
S'00000b33d43096d4a4f9aaa379ef7e0f'
p183
ssa(dp184
S'body'
p185
(dp186
S'scene'
p187
(lp188
S'AEMELIA Whoever bound him, I bare home upon my credit.'
p189
aS'A devil in an unknown field?'
p190
aS'First Merchant I am undisposed: Where is the devil.'
p191
aS'ANGELO I am an ape.'
p192
assS'head'
p193
(dp194
S'date'
p195
S'2018-06-04 08:43:56.146213'
p196
sS'nonce'
p197
I844893921
sS'ultimoHash'
p198
g183
sS'digest'
p199
S'000001dae3a93047ae27e91273796f28'
p200
ssa(dp201
S'body'
p202
(dp203
S'scene'
p204
(lp205
S'ADRIANA But say, sir, is common; that every churl affords.'
p206
aS'DROMIO OF EPHESUS I came from Corinth, my most gracious duke, O, grant me justice.'
p207
aS'Come, gaoler, bring me where the goldsmith to arrest me.'
p208
aS'Will you send some other messenger.'
p209
aS'So that my errand, due unto my face, Being forbid?'
p210
assS'head'
p211
(dp212
S'date'
p213
S'2018-06-04 08:45:02.648406'
p214
sS'nonce'
p215
I409533264
sS'ultimoHash'
p216
g200
sS'digest'
p217
S'000005a448853a725cb707b2576fe4bb'
p218
ssa.